target datalayout = "e-m:e-p270:32:32-p271:32:32-p272:64:64-i64:64-i128:128-f80:128-n8:16:32:64-S128"
target triple = "x86_64-pc-linux-gnu"

%"class.std::chrono::time_point" = type { %"class.std::chrono::duration.2" }
%"class.std::chrono::duration.2" = type { i64 }
%"struct.google::logging::internal::LogMessageData" = type { i32, [30001 x i8], %"class.google::LogMessage::LogStream", i32, i32, { i64, i64 }, %union.anon.27, i64, i64, i64, ptr, ptr, i8, i8, %"class.std::thread::id" }
%"class.google::LogMessage::LogStream" = type { %"class.std::basic_ostream.base", %"class.google::base_logging::LogStreamBuf", i64, ptr, %"class.std::basic_ios" }
%"class.std::basic_ostream.base" = type { ptr }
%"class.google::base_logging::LogStreamBuf" = type { %"class.std::basic_streambuf" }
%"class.std::basic_streambuf" = type { ptr, ptr, ptr, ptr, ptr, ptr, ptr, %"class.std::locale" }
%"class.std::locale" = type { ptr }
%"class.std::basic_ios" = type { %"class.std::ios_base", ptr, i8, i8, ptr, ptr, ptr, ptr }
%"class.std::ios_base" = type { ptr, i64, i64, i32, i32, i32, ptr, %"struct.std::ios_base::_Words", [8 x %"struct.std::ios_base::_Words"], i32, ptr, %"class.std::locale" }
%"struct.std::ios_base::_Words" = type { ptr, i64 }
%union.anon.27 = type { ptr }
%"class.std::thread::id" = type { i64 }
%"class.google::LogMessage" = type { ptr, ptr, %"struct.google::LogMessageTime" }
%"struct.google::LogMessageTime" = type { %struct.tm, %"class.std::chrono::time_point", %"class.std::chrono::duration.28", %"class.std::chrono::duration.29" }
%struct.tm = type { i32, i32, i32, i32, i32, i32, i32, i32, i32, i64, ptr }
%"class.std::chrono::duration.28" = type { i64 }
%"class.std::chrono::duration.29" = type { i64 }

@_ZN6google14LogMessageTimeC1Ev = unnamed_addr alias void (ptr), ptr @_ZN6google14LogMessageTimeC2Ev

; Function Attrs: mustprogress nounwind uwtable
define linkonce_odr hidden void @_ZN6google10LogMessage9LogStream7set_ctrEl(ptr noundef nonnull align 8 dereferenceable(88) %0, i64 noundef %1) #2 comdat align 2 {
  %3 = alloca ptr, align 8
  %4 = alloca i64, align 8
  store ptr %0, ptr %3, align 8, !tbaa !3
  store i64 %1, ptr %4, align 8, !tbaa !13
  %5 = load ptr, ptr %3, align 8
  %6 = load i64, ptr %4, align 8, !tbaa !13
  %7 = getelementptr inbounds nuw %"class.google::LogMessage::LogStream", ptr %5, i32 0, i32 2
  store i64 %6, ptr %7, align 8, !tbaa !17
  ret void
}

; Function Attrs: mustprogress uwtable
define void @_ZN6google10LogMessageC2EPKciNS_11LogSeverityElMS0_FvvE(ptr noundef nonnull align 8 dereferenceable(96) %0, ptr noundef %1, i32 noundef %2, i32 noundef %3, i64 noundef %4, ptr noundef byval({ i64, i64 }) align 8 %5) unnamed_addr #0 align 2 {
  %7 = alloca ptr, align 8
  %8 = alloca ptr, align 8
  %9 = alloca i32, align 4
  %10 = alloca i32, align 4
  %11 = alloca i64, align 8
  %12 = alloca { i64, i64 }, align 8
  %13 = alloca { i64, i64 }, align 8
  %14 = load { i64, i64 }, ptr %5, align 8, !tbaa !77
  store ptr %0, ptr %7, align 8, !tbaa !128
  store ptr %1, ptr %8, align 8, !tbaa !9
  store i32 %2, ptr %9, align 4, !tbaa !11
  store i32 %3, ptr %10, align 4, !tbaa !51
  store i64 %4, ptr %11, align 8, !tbaa !13
  store { i64, i64 } %14, ptr %12, align 8, !tbaa !77
  %15 = load ptr, ptr %7, align 8
  %16 = getelementptr inbounds nuw %"class.google::LogMessage", ptr %15, i32 0, i32 0
  store ptr null, ptr %16, align 8, !tbaa !130
  %17 = getelementptr inbounds nuw %"class.google::LogMessage", ptr %15, i32 0, i32 2
  call void @_ZN6google14LogMessageTimeC1Ev(ptr noundef nonnull align 8 dereferenceable(80) %17)
  %18 = load ptr, ptr %8, align 8, !tbaa !9
  %19 = load i32, ptr %9, align 4, !tbaa !11
  %20 = load i32, ptr %10, align 4, !tbaa !51
  %21 = load { i64, i64 }, ptr %12, align 8, !tbaa !77
  store { i64, i64 } %21, ptr %13, align 8, !tbaa !77
  %22 = getelementptr inbounds nuw { i64, i64 }, ptr %13, i32 0, i32 0
  %23 = load i64, ptr %22, align 8
  %24 = getelementptr inbounds nuw { i64, i64 }, ptr %13, i32 0, i32 1
  %25 = load i64, ptr %24, align 8
  call void @_ZN6google10LogMessage4InitEPKciNS_11LogSeverityEMS0_FvvE(ptr noundef nonnull align 8 dereferenceable(96) %15, ptr noundef %18, i32 noundef %19, i32 noundef %20, i64 %23, i64 %25)
  %26 = getelementptr inbounds nuw %"class.google::LogMessage", ptr %15, i32 0, i32 1
  %27 = load ptr, ptr %26, align 8, !tbaa !136
  %28 = getelementptr inbounds nuw %"struct.google::logging::internal::LogMessageData", ptr %27, i32 0, i32 2
  %29 = load i64, ptr %11, align 8, !tbaa !13
  call void @_ZN6google10LogMessage9LogStream7set_ctrEl(ptr noundef nonnull align 8 dereferenceable(88) %28, i64 noundef %29)
  ret void
}