; Function Attrs: mustprogress uwtable
define void @_ZN6google10LogMessageC2EPKciNS_11LogSeverityElMS0_FvvE(ptr noundef nonnull align 8 dereferenceable(96) initializes((0, 8)) %0, ptr noundef %1, i32 noundef %2, i32 noundef %3, i64 noundef %4, ptr noundef readonly byval({ i64, i64 }) align 8 captures(none) %5) unnamed_addr #0 align 2 {
  %.unpack = load i64, ptr %5, align 8, !tbaa !51
  %.elt10 = getelementptr inbounds nuw i8, ptr %5, i64 8
  %.unpack11 = load i64, ptr %.elt10, align 8, !tbaa !51
  store ptr null, ptr %0, align 8, !tbaa !84
  %7 = getelementptr inbounds nuw i8, ptr %0, i64 16
  tail call void @_ZN6google14LogMessageTimeC1Ev(ptr noundef nonnull align 8 dereferenceable(80) %7)
  tail call void @_ZN6google10LogMessage4InitEPKciNS_11LogSeverityEMS0_FvvE(ptr noundef nonnull align 8 dereferenceable(96) %0, ptr noundef %1, i32 noundef %2, i32 noundef %3, i64 %.unpack, i64 %.unpack11)
  %8 = getelementptr inbounds nuw i8, ptr %0, i64 8
  %9 = load ptr, ptr %8, align 8, !tbaa !91
  %10 = getelementptr inbounds nuw i8, ptr %9, i64 30080
  store i64 %4, ptr %10, align 8, !tbaa !15
  ret void
}